target datalayout = "e-m:e-p270:32:32-p271:32:32-p272:64:64-i64:64-i128:128-f80:128-n8:16:32:64-S128"
target triple = "x86_64-pc-linux-gnu"

%struct.cmsCIExyY = type { double, double, double }
%struct.cmsCIEXYZ = type { double, double, double }
%struct.BCHSWADJUSTS = type { double, double, double, double, i32, %struct.cmsCIEXYZ, %struct.cmsCIEXYZ }

@.str.11 = private unnamed_addr constant [14 x i32] [i32 66, i32 67, i32 72, i32 83, i32 32, i32 98, i32 117, i32 105, i32 108, i32 116, i32 45, i32 105, i32 110, i32 0], align 4

; Function Attrs: nounwind uwtable
define hidden ptr @cmsCreateBCHSWabstractProfileTHR(ptr noundef %0, i32 noundef %1, double noundef %2, double noundef %3, double noundef %4, double noundef %5, i32 noundef %6, i32 noundef %7) #0 {
  %9 = alloca ptr, align 8
  %10 = alloca ptr, align 8
  %11 = alloca i32, align 4
  %12 = alloca double, align 8
  %13 = alloca double, align 8
  %14 = alloca double, align 8
  %15 = alloca double, align 8
  %16 = alloca i32, align 4
  %17 = alloca i32, align 4
  %18 = alloca ptr, align 8
  %19 = alloca ptr, align 8
  %20 = alloca %struct.BCHSWADJUSTS, align 8
  %21 = alloca %struct.cmsCIExyY, align 8
  %22 = alloca ptr, align 8
  %23 = alloca [15 x i32], align 16
  %24 = alloca i32, align 4
  store ptr %0, ptr %10, align 8
  store i32 %1, ptr %11, align 4
  store double %2, ptr %12, align 8
  store double %3, ptr %13, align 8
  store double %4, ptr %14, align 8
  store double %5, ptr %15, align 8
  store i32 %6, ptr %16, align 4
  store i32 %7, ptr %17, align 4
  %25 = load double, ptr %12, align 8
  %26 = getelementptr inbounds %struct.BCHSWADJUSTS, ptr %20, i32 0, i32 0
  store double %25, ptr %26, align 8
  %27 = load double, ptr %13, align 8
  %28 = getelementptr inbounds %struct.BCHSWADJUSTS, ptr %20, i32 0, i32 1
  store double %27, ptr %28, align 8
  %29 = load double, ptr %14, align 8
  %30 = getelementptr inbounds %struct.BCHSWADJUSTS, ptr %20, i32 0, i32 2
  store double %29, ptr %30, align 8
  %31 = load double, ptr %15, align 8
  %32 = getelementptr inbounds %struct.BCHSWADJUSTS, ptr %20, i32 0, i32 3
  store double %31, ptr %32, align 8
  %33 = load i32, ptr %16, align 4
  %34 = load i32, ptr %17, align 4
  %35 = icmp eq i32 %33, %34
  br i1 %35, label %36, label %38

36:                                               ; preds = %8
  %37 = getelementptr inbounds %struct.BCHSWADJUSTS, ptr %20, i32 0, i32 4
  store i32 0, ptr %37, align 8
  br label %48

38:                                               ; preds = %8
  %39 = getelementptr inbounds %struct.BCHSWADJUSTS, ptr %20, i32 0, i32 4
  store i32 1, ptr %39, align 8
  %40 = load i32, ptr %16, align 4
  %41 = uitofp i32 %40 to double
  %42 = call i32 @cmsWhitePointFromTemp(ptr noundef %21, double noundef %41)
  %43 = getelementptr inbounds %struct.BCHSWADJUSTS, ptr %20, i32 0, i32 5
  call void @cmsxyY2XYZ(ptr noundef %43, ptr noundef %21)
  %44 = load i32, ptr %17, align 4
  %45 = uitofp i32 %44 to double
  %46 = call i32 @cmsWhitePointFromTemp(ptr noundef %21, double noundef %45)
  %47 = getelementptr inbounds %struct.BCHSWADJUSTS, ptr %20, i32 0, i32 6
  call void @cmsxyY2XYZ(ptr noundef %47, ptr noundef %21)
  br label %48

48:                                               ; preds = %38, %36
  %49 = load ptr, ptr %10, align 8
  %50 = call ptr @cmsCreateProfilePlaceholder(ptr noundef %49)
  store ptr %50, ptr %18, align 8
  %51 = load ptr, ptr %18, align 8
  %52 = icmp ne ptr %51, null
  br i1 %52, label %54, label %53

53:                                               ; preds = %48
  store ptr null, ptr %9, align 8
  br label %114

54:                                               ; preds = %48
  %55 = load ptr, ptr %18, align 8
  call void @cmsSetDeviceClass(ptr noundef %55, i32 noundef 1633842036)
  %56 = load ptr, ptr %18, align 8
  call void @cmsSetColorSpace(ptr noundef %56, i32 noundef 1281450528)
  %57 = load ptr, ptr %18, align 8
  call void @cmsSetPCS(ptr noundef %57, i32 noundef 1281450528)
  %58 = load ptr, ptr %18, align 8
  call void @cmsSetHeaderRenderingIntent(ptr noundef %58, i32 noundef 0)
  %59 = load ptr, ptr %10, align 8
  %60 = call ptr @cmsPipelineAlloc(ptr noundef %59, i32 noundef 3, i32 noundef 3)
  store ptr %60, ptr %19, align 8
  %61 = load ptr, ptr %19, align 8
  %62 = icmp eq ptr %61, null
  br i1 %62, label %63, label %66

63:                                               ; preds = %54
  %64 = load ptr, ptr %18, align 8
  %65 = call i32 @cmsCloseProfile(ptr noundef %64)
  store ptr null, ptr %9, align 8
  br label %114

66:                                               ; preds = %54
  store i32 0, ptr %24, align 4
  br label %67

67:                                               ; preds = %75, %66
  %68 = load i32, ptr %24, align 4
  %69 = icmp ult i32 %68, 15
  br i1 %69, label %70, label %78

70:                                               ; preds = %67
  %71 = load i32, ptr %11, align 4
  %72 = load i32, ptr %24, align 4
  %73 = zext i32 %72 to i64
  %74 = getelementptr inbounds [15 x i32], ptr %23, i64 0, i64 %73
  store i32 %71, ptr %74, align 4
  br label %75

75:                                               ; preds = %70
  %76 = load i32, ptr %24, align 4
  %77 = add i32 %76, 1
  store i32 %77, ptr %24, align 4
  br label %67, !llvm.loop !6

78:                                               ; preds = %67
  %79 = load ptr, ptr %10, align 8
  %80 = getelementptr inbounds [15 x i32], ptr %23, i64 0, i64 0
  %81 = call ptr @cmsStageAllocCLut16bitGranular(ptr noundef %79, ptr noundef %80, i32 noundef 3, i32 noundef 3, ptr noundef null)
  store ptr %81, ptr %22, align 8
  %82 = load ptr, ptr %22, align 8
  %83 = icmp eq ptr %82, null
  br i1 %83, label %84, label %85

84:                                               ; preds = %78
  br label %110

85:                                               ; preds = %78
  %86 = load ptr, ptr %22, align 8
  %87 = call i32 @cmsStageSampleCLut16bit(ptr noundef %86, ptr noundef @bchswSampler, ptr noundef %20, i32 noundef 0)
  %88 = icmp ne i32 %87, 0
  br i1 %88, label %90, label %89

89:                                               ; preds = %85
  br label %110

90:                                               ; preds = %85
  %91 = load ptr, ptr %19, align 8
  %92 = load ptr, ptr %22, align 8
  %93 = call i32 @cmsPipelineInsertStage(ptr noundef %91, i32 noundef 1, ptr noundef %92)
  %94 = icmp ne i32 %93, 0
  br i1 %94, label %96, label %95

95:                                               ; preds = %90
  br label %110

96:                                               ; preds = %90
  %97 = load ptr, ptr %18, align 8
  %98 = call i32 @SetTextTags(ptr noundef %97, ptr noundef @.str.11)
  %99 = icmp ne i32 %98, 0
  br i1 %99, label %101, label %100

100:                                              ; preds = %96
  store ptr null, ptr %9, align 8
  br label %114

101:                                              ; preds = %96
  %102 = load ptr, ptr %18, align 8
  %103 = call ptr @cmsD50_XYZ()
  %104 = call i32 @cmsWriteTag(ptr noundef %102, i32 noundef 2004119668, ptr noundef %103)
  %105 = load ptr, ptr %18, align 8
  %106 = load ptr, ptr %19, align 8
  %107 = call i32 @cmsWriteTag(ptr noundef %105, i32 noundef 1093812784, ptr noundef %106)
  %108 = load ptr, ptr %19, align 8
  call void @cmsPipelineFree(ptr noundef %108)
  %109 = load ptr, ptr %18, align 8
  store ptr %109, ptr %9, align 8
  br label %114

110:                                              ; preds = %95, %89, %84
  %111 = load ptr, ptr %19, align 8
  call void @cmsPipelineFree(ptr noundef %111)
  %112 = load ptr, ptr %18, align 8
  %113 = call i32 @cmsCloseProfile(ptr noundef %112)
  store ptr null, ptr %9, align 8
  br label %114

114:                                              ; preds = %110, %101, %100, %63, %53
  %115 = load ptr, ptr %9, align 8
  ret ptr %115
}