; Function Attrs: nounwind uwtable
define hidden ptr @cmsCreateBCHSWabstractProfileTHR(ptr noundef %0, i32 noundef %1, double noundef %2, double noundef %3, double noundef %4, double noundef %5, i32 noundef %6, i32 noundef %7) local_unnamed_addr #0 {
  %9 = alloca %struct.BCHSWADJUSTS, align 8
  %10 = alloca %struct.cmsCIExyY, align 8
  %11 = alloca [15 x i32], align 16
  store double %2, ptr %9, align 8
  %12 = getelementptr inbounds i8, ptr %9, i64 8
  store double %3, ptr %12, align 8
  %13 = getelementptr inbounds i8, ptr %9, i64 16
  store double %4, ptr %13, align 8
  %14 = getelementptr inbounds i8, ptr %9, i64 24
  store double %5, ptr %14, align 8
  %15 = icmp eq i32 %6, %7
  %16 = getelementptr inbounds i8, ptr %9, i64 32
  br i1 %15, label %17, label %18

17:                                               ; preds = %8
  store i32 0, ptr %16, align 8
  br label %25

18:                                               ; preds = %8
  store i32 1, ptr %16, align 8
  %19 = uitofp i32 %6 to double
  %20 = call i32 @cmsWhitePointFromTemp(ptr noundef nonnull %10, double noundef %19) #7
  %21 = getelementptr inbounds i8, ptr %9, i64 40
  call void @cmsxyY2XYZ(ptr noundef nonnull %21, ptr noundef nonnull %10) #7
  %22 = uitofp i32 %7 to double
  %23 = call i32 @cmsWhitePointFromTemp(ptr noundef nonnull %10, double noundef %22) #7
  %24 = getelementptr inbounds i8, ptr %9, i64 64
  call void @cmsxyY2XYZ(ptr noundef nonnull %24, ptr noundef nonnull %10) #7
  br label %25

25:                                               ; preds = %18, %17
  %26 = call ptr @cmsCreateProfilePlaceholder(ptr noundef %0) #7
  %.not = icmp eq ptr %26, null
  br i1 %.not, label %48, label %27

27:                                               ; preds = %25
  call void @cmsSetDeviceClass(ptr noundef nonnull %26, i32 noundef 1633842036) #7
  call void @cmsSetColorSpace(ptr noundef nonnull %26, i32 noundef 1281450528) #7
  call void @cmsSetPCS(ptr noundef nonnull %26, i32 noundef 1281450528) #7
  call void @cmsSetHeaderRenderingIntent(ptr noundef nonnull %26, i32 noundef 0) #7
  %28 = call ptr @cmsPipelineAlloc(ptr noundef %0, i32 noundef 3, i32 noundef 3) #7
  %29 = icmp eq ptr %28, null
  br i1 %29, label %30, label %.preheader

30:                                               ; preds = %27
  %31 = call i32 @cmsCloseProfile(ptr noundef nonnull %26) #7
  br label %48

.preheader:                                       ; preds = %27, %.preheader
  %indvars.iv = phi i64 [ %indvars.iv.next, %.preheader ], [ 0, %27 ]
  %32 = getelementptr inbounds [15 x i32], ptr %11, i64 0, i64 %indvars.iv
  store i32 %1, ptr %32, align 4
  %indvars.iv.next = add nuw nsw i64 %indvars.iv, 1
  %exitcond.not = icmp eq i64 %indvars.iv.next, 15
  br i1 %exitcond.not, label %33, label %.preheader, !llvm.loop !6

33:                                               ; preds = %.preheader
  %34 = call ptr @cmsStageAllocCLut16bitGranular(ptr noundef %0, ptr noundef nonnull %11, i32 noundef 3, i32 noundef 3, ptr noundef null) #7
  %35 = icmp eq ptr %34, null
  br i1 %35, label %46, label %36

36:                                               ; preds = %33
  %37 = call i32 @cmsStageSampleCLut16bit(ptr noundef nonnull %34, ptr noundef nonnull @bchswSampler, ptr noundef nonnull %9, i32 noundef 0) #7
  %.not40 = icmp eq i32 %37, 0
  br i1 %.not40, label %46, label %38

38:                                               ; preds = %36
  %39 = call i32 @cmsPipelineInsertStage(ptr noundef nonnull %28, i32 noundef 1, ptr noundef nonnull %34) #7
  %.not41 = icmp eq i32 %39, 0
  br i1 %.not41, label %46, label %40

40:                                               ; preds = %38
  %41 = call fastcc i32 @SetTextTags(ptr noundef nonnull %26, ptr noundef nonnull @.str.11)
  %.not42 = icmp eq i32 %41, 0
  br i1 %.not42, label %48, label %42

42:                                               ; preds = %40
  %43 = call ptr @cmsD50_XYZ() #7
  %44 = call i32 @cmsWriteTag(ptr noundef nonnull %26, i32 noundef 2004119668, ptr noundef %43) #7
  %45 = call i32 @cmsWriteTag(ptr noundef nonnull %26, i32 noundef 1093812784, ptr noundef nonnull %28) #7
  call void @cmsPipelineFree(ptr noundef nonnull %28) #7
  br label %48

46:                                               ; preds = %38, %36, %33
  call void @cmsPipelineFree(ptr noundef nonnull %28) #7
  %47 = call i32 @cmsCloseProfile(ptr noundef nonnull %26) #7
  br label %48

48:                                               ; preds = %40, %25, %46, %42, %30
  %.034 = phi ptr [ null, %30 ], [ null, %46 ], [ %26, %42 ], [ null, %25 ], [ null, %40 ]
  ret ptr %.034
}